target datalayout = "e-m:e-p270:32:32-p271:32:32-p272:64:64-i64:64-i128:128-f80:128-n8:16:32:64-S128"
target triple = "x86_64-pc-linux-gnu"

@proto_register_gearman.ett = internal global [3 x ptr] [ptr @ett_gearman, ptr @ett_gearman_command, ptr @ett_gearman_content], align 16
@.str.58 = private unnamed_addr constant [17 x i8] c"Gearman Protocol\00", align 1
@.str.59 = private unnamed_addr constant [8 x i8] c"Gearman\00", align 1
@.str.60 = private unnamed_addr constant [8 x i8] c"gearman\00", align 1
@proto_gearman = internal global i32 0, align 4
@.str.61 = private unnamed_addr constant [10 x i8] c"desegment\00", align 1
@.str.62 = private unnamed_addr constant [62 x i8] c"Desegment all Gearman messages spanning multiple TCP segments\00", align 1
@.str.63 = private unnamed_addr constant [91 x i8] c"Whether the Gearman dissector should desegment all messages spanning multiple TCP segments\00", align 1
@gearman_desegment = internal global i8 1, align 1
@gearman_handle = internal global ptr null, align 8

; Function Attrs: null_pointer_is_valid sspstrong uwtable
define hidden void @proto_register_gearman() #0 {
  %1 = alloca ptr, align 8
  %2 = alloca ptr, align 8
  call void @llvm.lifetime.start.p0(i64 8, ptr %1) #4
  call void @llvm.lifetime.start.p0(i64 8, ptr %2) #4
  %3 = call i32 @proto_register_protocol(ptr noundef @.str.58, ptr noundef @.str.59, ptr noundef @.str.60)
  store i32 %3, ptr @proto_gearman, align 4
  %4 = load i32, ptr @proto_gearman, align 4
  call void @proto_register_field_array(i32 noundef %4, ptr noundef @proto_register_gearman.hf, i32 noundef 31)
  call void @proto_register_subtree_array(ptr noundef @proto_register_gearman.ett, i32 noundef 3)
  %5 = load i32, ptr @proto_gearman, align 4
  %6 = call ptr @expert_register_protocol(i32 noundef %5)
  store ptr %6, ptr %2, align 8
  %7 = load ptr, ptr %2, align 8
  call void @expert_register_field_array(ptr noundef %7, ptr noundef @proto_register_gearman.ei, i32 noundef 1)
  %8 = load i32, ptr @proto_gearman, align 4
  %9 = call ptr @prefs_register_protocol(i32 noundef %8, ptr noundef null)
  store ptr %9, ptr %1, align 8
  %10 = load ptr, ptr %1, align 8
  call void @prefs_register_bool_preference(ptr noundef %10, ptr noundef @.str.61, ptr noundef @.str.62, ptr noundef @.str.63, ptr noundef @gearman_desegment)
  %11 = load i32, ptr @proto_gearman, align 4
  %12 = call ptr @register_dissector(ptr noundef @.str.60, ptr noundef @dissect_gearman, i32 noundef %11)
  store ptr %12, ptr @gearman_handle, align 8
  call void @llvm.lifetime.end.p0(i64 8, ptr %2) #4
  call void @llvm.lifetime.end.p0(i64 8, ptr %1) #4
  ret void
}